target datalayout = "e-m:e-p270:32:32-p271:32:32-p272:64:64-i64:64-i128:128-f80:128-n8:16:32:64-S128"
target triple = "x86_64-unknown-linux-gnu"

%class.b2ContactFilter = type { ptr }
%class.b2ContactListener = type { ptr }
%class.b2ContactManager = type { %class.b2BroadPhase, ptr, i32, ptr, ptr, ptr }
%class.b2BroadPhase = type <{ %class.b2DynamicTree, i32, [4 x i8], ptr, i32, i32, ptr, i32, i32, i32, [4 x i8] }>
%class.b2DynamicTree = type { i32, ptr, i32, i32, i32, i32 }

@b2_defaultFilter = hidden global %class.b2ContactFilter { ptr getelementptr inbounds ({ [5 x ptr] }, ptr @_ZTV15b2ContactFilter, i32 0, i32 0, i32 2) }, align 8
@b2_defaultListener = hidden global %class.b2ContactListener { ptr getelementptr inbounds ({ [8 x ptr] }, ptr @_ZTV17b2ContactListener, i32 0, i32 0, i32 2) }, align 8

; Function Attrs: mustprogress uwtable
define void @_ZN16b2ContactManagerC2Ev(ptr noundef nonnull align 8 dereferenceable(120) %this) unnamed_addr #3 align 2 {
entry:
  %this.addr = alloca ptr, align 8
  store ptr %this, ptr %this.addr, align 8
  %this1 = load ptr, ptr %this.addr, align 8
  %m_broadPhase = getelementptr inbounds %class.b2ContactManager, ptr %this1, i32 0, i32 0
  call void @_ZN12b2BroadPhaseC1Ev(ptr noundef nonnull align 8 dereferenceable(76) %m_broadPhase)
  %m_contactList = getelementptr inbounds %class.b2ContactManager, ptr %this1, i32 0, i32 1
  store ptr null, ptr %m_contactList, align 8
  %m_contactCount = getelementptr inbounds %class.b2ContactManager, ptr %this1, i32 0, i32 2
  store i32 0, ptr %m_contactCount, align 8
  %m_contactFilter = getelementptr inbounds %class.b2ContactManager, ptr %this1, i32 0, i32 3
  store ptr @b2_defaultFilter, ptr %m_contactFilter, align 8
  %m_contactListener = getelementptr inbounds %class.b2ContactManager, ptr %this1, i32 0, i32 4
  store ptr @b2_defaultListener, ptr %m_contactListener, align 8
  %m_allocator = getelementptr inbounds %class.b2ContactManager, ptr %this1, i32 0, i32 5
  store ptr null, ptr %m_allocator, align 8
  ret void
}