; Function Attrs: mustprogress uwtable
define void @_ZN16b2ContactManagerC2Ev(ptr noundef nonnull align 8 dereferenceable(120) %this) unnamed_addr #1 align 2 {
entry:
  tail call void @_ZN12b2BroadPhaseC1Ev(ptr noundef nonnull align 8 dereferenceable(76) %this)
  %m_contactList = getelementptr inbounds i8, ptr %this, i64 80
  store ptr null, ptr %m_contactList, align 8
  %m_contactCount = getelementptr inbounds i8, ptr %this, i64 88
  store i32 0, ptr %m_contactCount, align 8
  %m_contactFilter = getelementptr inbounds i8, ptr %this, i64 96
  store ptr @b2_defaultFilter, ptr %m_contactFilter, align 8
  %m_contactListener = getelementptr inbounds i8, ptr %this, i64 104
  store ptr @b2_defaultListener, ptr %m_contactListener, align 8
  %m_allocator = getelementptr inbounds i8, ptr %this, i64 112
  store ptr null, ptr %m_allocator, align 8
  ret void
}